target datalayout = "e-m:e-p270:32:32-p271:32:32-p272:64:64-i64:64-i128:128-f80:128-n8:16:32:64-S128"
target triple = "x86_64-pc-linux-gnu"

%struct.UEnumeration = type { ptr, ptr, ptr, ptr, ptr, ptr, ptr }
%"class.icu_77::LocalMemory" = type { %"class.icu_77::LocalPointerBase" }
%"class.icu_77::LocalPointerBase" = type { ptr }
%"class.icu_77::LocalMemory.16" = type { %"class.icu_77::LocalPointerBase.17" }
%"class.icu_77::LocalPointerBase.17" = type { ptr }
%struct.UKeywordsContext = type { ptr, ptr }

; Function Attrs: mustprogress nounwind uwtable
define linkonce_odr void @_ZN6icu_7716LocalPointerBaseI16UKeywordsContextED2Ev(ptr noundef nonnull align 8 dereferenceable(8) %0) unnamed_addr #0 comdat align 2 {
  %2 = alloca ptr, align 8
  store ptr %0, ptr %2, align 8, !tbaa !113
  ret void
}

; Function Attrs: mustprogress nounwind uwtable
define linkonce_odr void @_ZN6icu_7716LocalPointerBaseI12UEnumerationED2Ev(ptr noundef nonnull align 8 dereferenceable(8) %0) unnamed_addr #0 comdat align 2 {
  %2 = alloca ptr, align 8
  store ptr %0, ptr %2, align 8, !tbaa !115
  ret void
}

; Function Attrs: mustprogress nounwind uwtable
define linkonce_odr void @_ZN6icu_7716LocalPointerBaseI12UEnumerationEC2EPS1_(ptr noundef nonnull align 8 dereferenceable(8) %0, ptr noundef %1) unnamed_addr #0 comdat align 2 {
  %3 = alloca ptr, align 8
  %4 = alloca ptr, align 8
  store ptr %0, ptr %3, align 8, !tbaa !115
  store ptr %1, ptr %4, align 8, !tbaa !107
  %5 = load ptr, ptr %3, align 8
  %6 = getelementptr inbounds nuw %"class.icu_77::LocalPointerBase.17", ptr %5, i32 0, i32 0
  %7 = load ptr, ptr %4, align 8, !tbaa !107
  store ptr %7, ptr %6, align 8, !tbaa !111
  ret void
}

; Function Attrs: mustprogress nounwind uwtable
define linkonce_odr void @_ZN6icu_7716LocalPointerBaseI16UKeywordsContextEC2EPS1_(ptr noundef nonnull align 8 dereferenceable(8) %0, ptr noundef %1) unnamed_addr #0 comdat align 2 {
  %3 = alloca ptr, align 8
  %4 = alloca ptr, align 8
  store ptr %0, ptr %3, align 8, !tbaa !113
  store ptr %1, ptr %4, align 8, !tbaa !103
  %5 = load ptr, ptr %3, align 8
  %6 = getelementptr inbounds nuw %"class.icu_77::LocalPointerBase", ptr %5, i32 0, i32 0
  %7 = load ptr, ptr %4, align 8, !tbaa !103
  store ptr %7, ptr %6, align 8, !tbaa !109
  ret void
}

; Function Attrs: mustprogress nounwind uwtable
define linkonce_odr void @_ZN6icu_7711LocalMemoryI16UKeywordsContextED2Ev(ptr noundef nonnull align 8 dereferenceable(8) %0) unnamed_addr #0 comdat align 2 personality ptr @__gxx_personality_v0 {
  %2 = alloca ptr, align 8
  store ptr %0, ptr %2, align 8, !tbaa !101
  %3 = load ptr, ptr %2, align 8
  %4 = getelementptr inbounds nuw %"class.icu_77::LocalPointerBase", ptr %3, i32 0, i32 0
  %5 = load ptr, ptr %4, align 8, !tbaa !109
  invoke void @uprv_free_77(ptr noundef %5)
          to label %6 unwind label %7

6:                                                ; preds = %1
  call void @_ZN6icu_7716LocalPointerBaseI16UKeywordsContextED2Ev(ptr noundef nonnull align 8 dereferenceable(8) %3) #11
  ret void

7:                                                ; preds = %1
  %8 = landingpad { ptr, i32 }
          catch ptr null
  %9 = extractvalue { ptr, i32 } %8, 0
  call void @__clang_call_terminate(ptr %9) #13
  unreachable
}

; Function Attrs: mustprogress nounwind uwtable
define linkonce_odr noundef ptr @_ZN6icu_7716LocalPointerBaseI12UEnumerationE6orphanEv(ptr noundef nonnull align 8 dereferenceable(8) %0) #0 comdat align 2 {
  %2 = alloca ptr, align 8
  %3 = alloca ptr, align 8
  store ptr %0, ptr %2, align 8, !tbaa !115
  %4 = load ptr, ptr %2, align 8
  call void @llvm.lifetime.start.p0(i64 8, ptr %3) #11
  %5 = getelementptr inbounds nuw %"class.icu_77::LocalPointerBase.17", ptr %4, i32 0, i32 0
  %6 = load ptr, ptr %5, align 8, !tbaa !111
  store ptr %6, ptr %3, align 8, !tbaa !107
  %7 = getelementptr inbounds nuw %"class.icu_77::LocalPointerBase.17", ptr %4, i32 0, i32 0
  store ptr null, ptr %7, align 8, !tbaa !111
  %8 = load ptr, ptr %3, align 8, !tbaa !107
  call void @llvm.lifetime.end.p0(i64 8, ptr %3) #11
  ret ptr %8
}

; Function Attrs: mustprogress nounwind uwtable
define linkonce_odr noundef ptr @_ZNK6icu_7716LocalPointerBaseI12UEnumerationEptEv(ptr noundef nonnull align 8 dereferenceable(8) %0) #0 comdat align 2 {
  %2 = alloca ptr, align 8
  store ptr %0, ptr %2, align 8, !tbaa !115
  %3 = load ptr, ptr %2, align 8
  %4 = getelementptr inbounds nuw %"class.icu_77::LocalPointerBase.17", ptr %3, i32 0, i32 0
  %5 = load ptr, ptr %4, align 8, !tbaa !111
  ret ptr %5
}

; Function Attrs: mustprogress nounwind uwtable
define linkonce_odr noundef ptr @_ZN6icu_7716LocalPointerBaseI16UKeywordsContextE6orphanEv(ptr noundef nonnull align 8 dereferenceable(8) %0) #0 comdat align 2 {
  %2 = alloca ptr, align 8
  %3 = alloca ptr, align 8
  store ptr %0, ptr %2, align 8, !tbaa !113
  %4 = load ptr, ptr %2, align 8
  call void @llvm.lifetime.start.p0(i64 8, ptr %3) #11
  %5 = getelementptr inbounds nuw %"class.icu_77::LocalPointerBase", ptr %4, i32 0, i32 0
  %6 = load ptr, ptr %5, align 8, !tbaa !109
  store ptr %6, ptr %3, align 8, !tbaa !103
  %7 = getelementptr inbounds nuw %"class.icu_77::LocalPointerBase", ptr %4, i32 0, i32 0
  store ptr null, ptr %7, align 8, !tbaa !109
  %8 = load ptr, ptr %3, align 8, !tbaa !103
  call void @llvm.lifetime.end.p0(i64 8, ptr %3) #11
  ret ptr %8
}

; Function Attrs: mustprogress nounwind uwtable
define linkonce_odr noundef ptr @_ZNK6icu_7716LocalPointerBaseI16UKeywordsContextEptEv(ptr noundef nonnull align 8 dereferenceable(8) %0) #0 comdat align 2 {
  %2 = alloca ptr, align 8
  store ptr %0, ptr %2, align 8, !tbaa !113
  %3 = load ptr, ptr %2, align 8
  %4 = getelementptr inbounds nuw %"class.icu_77::LocalPointerBase", ptr %3, i32 0, i32 0
  %5 = load ptr, ptr %4, align 8, !tbaa !109
  ret ptr %5
}

; Function Attrs: mustprogress nounwind uwtable
define linkonce_odr noundef ptr @_ZNK6icu_7716LocalPointerBaseI12UEnumerationE8getAliasEv(ptr noundef nonnull align 8 dereferenceable(8) %0) #0 comdat align 2 {
  %2 = alloca ptr, align 8
  store ptr %0, ptr %2, align 8, !tbaa !115
  %3 = load ptr, ptr %2, align 8
  %4 = getelementptr inbounds nuw %"class.icu_77::LocalPointerBase.17", ptr %3, i32 0, i32 0
  %5 = load ptr, ptr %4, align 8, !tbaa !111
  ret ptr %5
}

; Function Attrs: mustprogress nounwind uwtable
define linkonce_odr void @_ZN6icu_7711LocalMemoryI12UEnumerationED2Ev(ptr noundef nonnull align 8 dereferenceable(8) %0) unnamed_addr #0 comdat align 2 personality ptr @__gxx_personality_v0 {
  %2 = alloca ptr, align 8
  store ptr %0, ptr %2, align 8, !tbaa !105
  %3 = load ptr, ptr %2, align 8
  %4 = getelementptr inbounds nuw %"class.icu_77::LocalPointerBase.17", ptr %3, i32 0, i32 0
  %5 = load ptr, ptr %4, align 8, !tbaa !111
  invoke void @uprv_free_77(ptr noundef %5)
          to label %6 unwind label %7

6:                                                ; preds = %1
  call void @_ZN6icu_7716LocalPointerBaseI12UEnumerationED2Ev(ptr noundef nonnull align 8 dereferenceable(8) %3) #11
  ret void

7:                                                ; preds = %1
  %8 = landingpad { ptr, i32 }
          catch ptr null
  %9 = extractvalue { ptr, i32 } %8, 0
  call void @__clang_call_terminate(ptr %9) #13
  unreachable
}

; Function Attrs: mustprogress nounwind uwtable
define linkonce_odr noundef signext i8 @_ZNK6icu_7716LocalPointerBaseI12UEnumerationE6isNullEv(ptr noundef nonnull align 8 dereferenceable(8) %0) #0 comdat align 2 {
  %2 = alloca ptr, align 8
  store ptr %0, ptr %2, align 8, !tbaa !115
  %3 = load ptr, ptr %2, align 8
  %4 = getelementptr inbounds nuw %"class.icu_77::LocalPointerBase.17", ptr %3, i32 0, i32 0
  %5 = load ptr, ptr %4, align 8, !tbaa !111
  %6 = icmp eq ptr %5, null
  %7 = zext i1 %6 to i8
  ret i8 %7
}

; Function Attrs: mustprogress nounwind uwtable
define linkonce_odr noundef signext i8 @_ZNK6icu_7716LocalPointerBaseI16UKeywordsContextE6isNullEv(ptr noundef nonnull align 8 dereferenceable(8) %0) #0 comdat align 2 {
  %2 = alloca ptr, align 8
  store ptr %0, ptr %2, align 8, !tbaa !113
  %3 = load ptr, ptr %2, align 8
  %4 = getelementptr inbounds nuw %"class.icu_77::LocalPointerBase", ptr %3, i32 0, i32 0
  %5 = load ptr, ptr %4, align 8, !tbaa !109
  %6 = icmp eq ptr %5, null
  %7 = zext i1 %6 to i8
  ret i8 %7
}

; Function Attrs: mustprogress uwtable
define linkonce_odr void @_ZN6icu_7711LocalMemoryI12UEnumerationE12adoptInsteadEPS1_(ptr noundef nonnull align 8 dereferenceable(8) %0, ptr noundef %1) #1 comdat align 2 {
  %3 = alloca ptr, align 8
  %4 = alloca ptr, align 8
  store ptr %0, ptr %3, align 8, !tbaa !105
  store ptr %1, ptr %4, align 8, !tbaa !107
  %5 = load ptr, ptr %3, align 8
  %6 = getelementptr inbounds nuw %"class.icu_77::LocalPointerBase.17", ptr %5, i32 0, i32 0
  %7 = load ptr, ptr %6, align 8, !tbaa !111
  call void @uprv_free_77(ptr noundef %7)
  %8 = load ptr, ptr %4, align 8, !tbaa !107
  %9 = getelementptr inbounds nuw %"class.icu_77::LocalPointerBase.17", ptr %5, i32 0, i32 0
  store ptr %8, ptr %9, align 8, !tbaa !111
  ret void
}

; Function Attrs: mustprogress uwtable
define linkonce_odr void @_ZN6icu_7711LocalMemoryI16UKeywordsContextE12adoptInsteadEPS1_(ptr noundef nonnull align 8 dereferenceable(8) %0, ptr noundef %1) #1 comdat align 2 {
  %3 = alloca ptr, align 8
  %4 = alloca ptr, align 8
  store ptr %0, ptr %3, align 8, !tbaa !101
  store ptr %1, ptr %4, align 8, !tbaa !103
  %5 = load ptr, ptr %3, align 8
  %6 = getelementptr inbounds nuw %"class.icu_77::LocalPointerBase", ptr %5, i32 0, i32 0
  %7 = load ptr, ptr %6, align 8, !tbaa !109
  call void @uprv_free_77(ptr noundef %7)
  %8 = load ptr, ptr %4, align 8, !tbaa !103
  %9 = getelementptr inbounds nuw %"class.icu_77::LocalPointerBase", ptr %5, i32 0, i32 0
  store ptr %8, ptr %9, align 8, !tbaa !109
  ret void
}

; Function Attrs: mustprogress uwtable
define linkonce_odr void @_ZN6icu_7711LocalMemoryI12UEnumerationEC2EPS1_(ptr noundef nonnull align 8 dereferenceable(8) %0, ptr noundef %1) unnamed_addr #1 comdat align 2 {
  %3 = alloca ptr, align 8
  %4 = alloca ptr, align 8
  store ptr %0, ptr %3, align 8, !tbaa !105
  store ptr %1, ptr %4, align 8, !tbaa !107
  %5 = load ptr, ptr %3, align 8
  %6 = load ptr, ptr %4, align 8, !tbaa !107
  call void @_ZN6icu_7716LocalPointerBaseI12UEnumerationEC2EPS1_(ptr noundef nonnull align 8 dereferenceable(8) %5, ptr noundef %6)
  ret void
}

; Function Attrs: mustprogress uwtable
define linkonce_odr void @_ZN6icu_7711LocalMemoryI16UKeywordsContextEC2EPS1_(ptr noundef nonnull align 8 dereferenceable(8) %0, ptr noundef %1) unnamed_addr #1 comdat align 2 {
  %3 = alloca ptr, align 8
  %4 = alloca ptr, align 8
  store ptr %0, ptr %3, align 8, !tbaa !101
  store ptr %1, ptr %4, align 8, !tbaa !103
  %5 = load ptr, ptr %3, align 8
  %6 = load ptr, ptr %4, align 8, !tbaa !103
  call void @_ZN6icu_7716LocalPointerBaseI16UKeywordsContextEC2EPS1_(ptr noundef nonnull align 8 dereferenceable(8) %5, ptr noundef %6)
  ret void
}

; Function Attrs: inlinehint mustprogress nounwind uwtable
define internal noundef signext i8 @_ZL9U_FAILURE10UErrorCode(i32 noundef %0) #2 {
  %2 = alloca i32, align 4
  store i32 %0, ptr %2, align 4, !tbaa !15
  %3 = load i32, ptr %2, align 4, !tbaa !15
  %4 = icmp sgt i32 %3, 0
  %5 = zext i1 %4 to i8
  ret i8 %5
}

; Function Attrs: mustprogress uwtable
define ptr @uloc_openKeywordList_77(ptr noundef %0, i32 noundef %1, ptr noundef %2) #1 personality ptr @__gxx_personality_v0 {
  %4 = alloca ptr, align 8
  %5 = alloca ptr, align 8
  %6 = alloca i32, align 4
  %7 = alloca ptr, align 8
  %8 = alloca %"class.icu_77::LocalMemory", align 8
  %9 = alloca %"class.icu_77::LocalMemory.16", align 8
  %10 = alloca ptr, align 8
  %11 = alloca i32, align 4
  %12 = alloca i32, align 4
  store ptr %0, ptr %5, align 8, !tbaa !17
  store i32 %1, ptr %6, align 4, !tbaa !14
  store ptr %2, ptr %7, align 8, !tbaa !22
  %13 = load ptr, ptr %7, align 8, !tbaa !22
  %14 = load i32, ptr %13, align 4, !tbaa !15
  %15 = call noundef signext i8 @_ZL9U_FAILURE10UErrorCode(i32 noundef %14)
  %16 = icmp ne i8 %15, 0
  br i1 %16, label %17, label %18

17:                                               ; preds = %3
  store ptr null, ptr %4, align 8
  br label %98

18:                                               ; preds = %3
  call void @llvm.lifetime.start.p0(i64 8, ptr %8) #11
  call void @_ZN6icu_7711LocalMemoryI16UKeywordsContextEC2EPS1_(ptr noundef nonnull align 8 dereferenceable(8) %8, ptr noundef null)
  call void @llvm.lifetime.start.p0(i64 8, ptr %9) #11
  invoke void @_ZN6icu_7711LocalMemoryI12UEnumerationEC2EPS1_(ptr noundef nonnull align 8 dereferenceable(8) %9, ptr noundef null)
          to label %19 unwind label %35

19:                                               ; preds = %18
  %20 = invoke noalias ptr @uprv_malloc_77(i64 noundef 16) #12
          to label %21 unwind label %39

21:                                               ; preds = %19
  invoke void @_ZN6icu_7711LocalMemoryI16UKeywordsContextE12adoptInsteadEPS1_(ptr noundef nonnull align 8 dereferenceable(8) %8, ptr noundef %20)
          to label %22 unwind label %39

22:                                               ; preds = %21
  %23 = invoke noalias ptr @uprv_malloc_77(i64 noundef 56) #12
          to label %24 unwind label %39

24:                                               ; preds = %22
  invoke void @_ZN6icu_7711LocalMemoryI12UEnumerationE12adoptInsteadEPS1_(ptr noundef nonnull align 8 dereferenceable(8) %9, ptr noundef %23)
          to label %25 unwind label %39

25:                                               ; preds = %24
  %26 = invoke noundef signext i8 @_ZNK6icu_7716LocalPointerBaseI16UKeywordsContextE6isNullEv(ptr noundef nonnull align 8 dereferenceable(8) %8)
          to label %27 unwind label %39

27:                                               ; preds = %25
  %28 = icmp ne i8 %26, 0
  br i1 %28, label %33, label %29

29:                                               ; preds = %27
  %30 = invoke noundef signext i8 @_ZNK6icu_7716LocalPointerBaseI12UEnumerationE6isNullEv(ptr noundef nonnull align 8 dereferenceable(8) %9)
          to label %31 unwind label %39

31:                                               ; preds = %29
  %32 = icmp ne i8 %30, 0
  br i1 %32, label %33, label %43

33:                                               ; preds = %31, %27
  %34 = load ptr, ptr %7, align 8, !tbaa !22
  store i32 7, ptr %34, align 4, !tbaa !15
  store ptr null, ptr %4, align 8
  store i32 1, ptr %12, align 4
  br label %96

35:                                               ; preds = %18
  %36 = landingpad { ptr, i32 }
          cleanup
  %37 = extractvalue { ptr, i32 } %36, 0
  store ptr %37, ptr %10, align 8
  %38 = extractvalue { ptr, i32 } %36, 1
  store i32 %38, ptr %11, align 4
  br label %97

39:                                               ; preds = %92, %90, %87, %83, %76, %74, %65, %55, %53, %48, %44, %29, %25, %24, %22, %21, %19
  %40 = landingpad { ptr, i32 }
          cleanup
  %41 = extractvalue { ptr, i32 } %40, 0
  store ptr %41, ptr %10, align 8
  %42 = extractvalue { ptr, i32 } %40, 1
  store i32 %42, ptr %11, align 4
  call void @_ZN6icu_7711LocalMemoryI12UEnumerationED2Ev(ptr noundef nonnull align 8 dereferenceable(8) %9) #11
  br label %97

43:                                               ; preds = %31
  br label %44

44:                                               ; preds = %43
  %45 = invoke noundef ptr @_ZNK6icu_7716LocalPointerBaseI12UEnumerationE8getAliasEv(ptr noundef nonnull align 8 dereferenceable(8) %9)
          to label %46 unwind label %39

46:                                               ; preds = %44
  call void @llvm.memcpy.p0.p0.i64(ptr align 8 %45, ptr align 8 @_ZL13gKeywordsEnum, i64 56, i1 false)
  br label %47

47:                                               ; preds = %46
  br label %48

48:                                               ; preds = %47
  %49 = load i32, ptr %6, align 4, !tbaa !14
  %50 = add nsw i32 %49, 1
  %51 = sext i32 %50 to i64
  %52 = invoke noalias ptr @uprv_malloc_77(i64 noundef %51) #12
          to label %53 unwind label %39

53:                                               ; preds = %48
  %54 = invoke noundef ptr @_ZNK6icu_7716LocalPointerBaseI16UKeywordsContextEptEv(ptr noundef nonnull align 8 dereferenceable(8) %8)
          to label %55 unwind label %39

55:                                               ; preds = %53
  %56 = getelementptr inbounds nuw %struct.UKeywordsContext, ptr %54, i32 0, i32 0
  store ptr %52, ptr %56, align 8, !tbaa !96
  %57 = invoke noundef ptr @_ZNK6icu_7716LocalPointerBaseI16UKeywordsContextEptEv(ptr noundef nonnull align 8 dereferenceable(8) %8)
          to label %58 unwind label %39

58:                                               ; preds = %55
  %59 = getelementptr inbounds nuw %struct.UKeywordsContext, ptr %57, i32 0, i32 0
  %60 = load ptr, ptr %59, align 8, !tbaa !96
  %61 = icmp eq ptr %60, null
  br i1 %61, label %62, label %64

62:                                               ; preds = %58
  %63 = load ptr, ptr %7, align 8, !tbaa !22
  store i32 7, ptr %63, align 4, !tbaa !15
  store ptr null, ptr %4, align 8
  store i32 1, ptr %12, align 4
  br label %96

64:                                               ; preds = %58
  br label %65

65:                                               ; preds = %64
  %66 = invoke noundef ptr @_ZNK6icu_7716LocalPointerBaseI16UKeywordsContextEptEv(ptr noundef nonnull align 8 dereferenceable(8) %8)
          to label %67 unwind label %39

67:                                               ; preds = %65
  %68 = getelementptr inbounds nuw %struct.UKeywordsContext, ptr %66, i32 0, i32 0
  %69 = load ptr, ptr %68, align 8, !tbaa !96
  %70 = load ptr, ptr %5, align 8, !tbaa !17
  %71 = load i32, ptr %6, align 4, !tbaa !14
  %72 = sext i32 %71 to i64
  call void @llvm.memcpy.p0.p0.i64(ptr align 1 %69, ptr align 1 %70, i64 %72, i1 false)
  br label %73

73:                                               ; preds = %67
  br label %74

74:                                               ; preds = %73
  %75 = invoke noundef ptr @_ZNK6icu_7716LocalPointerBaseI16UKeywordsContextEptEv(ptr noundef nonnull align 8 dereferenceable(8) %8)
          to label %76 unwind label %39

76:                                               ; preds = %74
  %77 = getelementptr inbounds nuw %struct.UKeywordsContext, ptr %75, i32 0, i32 0
  %78 = load ptr, ptr %77, align 8, !tbaa !96
  %79 = load i32, ptr %6, align 4, !tbaa !14
  %80 = sext i32 %79 to i64
  %81 = getelementptr inbounds i8, ptr %78, i64 %80
  store i8 0, ptr %81, align 1, !tbaa !25
  %82 = invoke noundef ptr @_ZNK6icu_7716LocalPointerBaseI16UKeywordsContextEptEv(ptr noundef nonnull align 8 dereferenceable(8) %8)
          to label %83 unwind label %39

83:                                               ; preds = %76
  %84 = getelementptr inbounds nuw %struct.UKeywordsContext, ptr %82, i32 0, i32 0
  %85 = load ptr, ptr %84, align 8, !tbaa !96
  %86 = invoke noundef ptr @_ZNK6icu_7716LocalPointerBaseI16UKeywordsContextEptEv(ptr noundef nonnull align 8 dereferenceable(8) %8)
          to label %87 unwind label %39

87:                                               ; preds = %83
  %88 = getelementptr inbounds nuw %struct.UKeywordsContext, ptr %86, i32 0, i32 1
  store ptr %85, ptr %88, align 8, !tbaa !98
  %89 = invoke noundef ptr @_ZN6icu_7716LocalPointerBaseI16UKeywordsContextE6orphanEv(ptr noundef nonnull align 8 dereferenceable(8) %8)
          to label %90 unwind label %39

90:                                               ; preds = %87
  %91 = invoke noundef ptr @_ZNK6icu_7716LocalPointerBaseI12UEnumerationEptEv(ptr noundef nonnull align 8 dereferenceable(8) %9)
          to label %92 unwind label %39

92:                                               ; preds = %90
  %93 = getelementptr inbounds nuw %struct.UEnumeration, ptr %91, i32 0, i32 1
  store ptr %89, ptr %93, align 8, !tbaa !99
  %94 = invoke noundef ptr @_ZN6icu_7716LocalPointerBaseI12UEnumerationE6orphanEv(ptr noundef nonnull align 8 dereferenceable(8) %9)
          to label %95 unwind label %39

95:                                               ; preds = %92
  store ptr %94, ptr %4, align 8
  store i32 1, ptr %12, align 4
  br label %96

96:                                               ; preds = %95, %62, %33
  call void @_ZN6icu_7711LocalMemoryI12UEnumerationED2Ev(ptr noundef nonnull align 8 dereferenceable(8) %9) #11
  call void @llvm.lifetime.end.p0(i64 8, ptr %9) #11
  call void @_ZN6icu_7711LocalMemoryI16UKeywordsContextED2Ev(ptr noundef nonnull align 8 dereferenceable(8) %8) #11
  call void @llvm.lifetime.end.p0(i64 8, ptr %8) #11
  br label %98

97:                                               ; preds = %39, %35
  call void @llvm.lifetime.end.p0(i64 8, ptr %9) #11
  call void @_ZN6icu_7711LocalMemoryI16UKeywordsContextED2Ev(ptr noundef nonnull align 8 dereferenceable(8) %8) #11
  call void @llvm.lifetime.end.p0(i64 8, ptr %8) #11
  br label %100

98:                                               ; preds = %96, %17
  %99 = load ptr, ptr %4, align 8
  ret ptr %99

100:                                              ; preds = %97
  %101 = load ptr, ptr %10, align 8
  %102 = load i32, ptr %11, align 4
  %103 = insertvalue { ptr, i32 } poison, ptr %101, 0
  %104 = insertvalue { ptr, i32 } %103, i32 %102, 1
  resume { ptr, i32 } %104
}