; Function Attrs: mustprogress uwtable
define noundef ptr @uloc_openKeywordList_77(ptr noundef readonly captures(none) %0, i32 noundef %1, ptr noundef captures(none) %2) local_unnamed_addr #1 personality ptr @__gxx_personality_v0 {
  %4 = load i32, ptr %2, align 4, !tbaa !13
  %5 = icmp slt i32 %4, 1
  br i1 %5, label %6, label %_ZN6icu_7711LocalMemoryI16UKeywordsContextED2Ev.exit

6:                                                ; preds = %3
  %7 = invoke noalias dereferenceable_or_null(16) ptr @uprv_malloc_77(i64 noundef 16) #21
          to label %8 unwind label %12

8:                                                ; preds = %6
  invoke void @uprv_free_77(ptr noundef null)
          to label %_ZN6icu_7711LocalMemoryI16UKeywordsContextE12adoptInsteadEPS1_.exit unwind label %12

_ZN6icu_7711LocalMemoryI16UKeywordsContextE12adoptInsteadEPS1_.exit: ; preds = %8
  %9 = invoke noalias dereferenceable_or_null(56) ptr @uprv_malloc_77(i64 noundef 56) #21
          to label %10 unwind label %12

10:                                               ; preds = %_ZN6icu_7711LocalMemoryI16UKeywordsContextE12adoptInsteadEPS1_.exit
  invoke void @uprv_free_77(ptr noundef null)
          to label %_ZN6icu_7711LocalMemoryI12UEnumerationE12adoptInsteadEPS1_.exit unwind label %12

_ZN6icu_7711LocalMemoryI12UEnumerationE12adoptInsteadEPS1_.exit: ; preds = %10
  %.not = icmp eq ptr %7, null
  %.not33 = icmp eq ptr %9, null
  %or.cond = or i1 %.not, %.not33
  br i1 %or.cond, label %11, label %17

11:                                               ; preds = %_ZN6icu_7711LocalMemoryI12UEnumerationE12adoptInsteadEPS1_.exit
  store i32 7, ptr %2, align 4, !tbaa !13
  br label %29

12:                                               ; preds = %10, %8, %17, %_ZN6icu_7711LocalMemoryI16UKeywordsContextE12adoptInsteadEPS1_.exit, %6
  %.sroa.022.0 = phi ptr [ %7, %17 ], [ %7, %10 ], [ %7, %_ZN6icu_7711LocalMemoryI16UKeywordsContextE12adoptInsteadEPS1_.exit ], [ null, %8 ], [ null, %6 ]
  %.sroa.0.0 = phi ptr [ %9, %17 ], [ null, %10 ], [ null, %_ZN6icu_7711LocalMemoryI16UKeywordsContextE12adoptInsteadEPS1_.exit ], [ null, %8 ], [ null, %6 ]
  %13 = landingpad { ptr, i32 }
          cleanup
  invoke void @uprv_free_77(ptr noundef %.sroa.0.0)
          to label %_ZN6icu_7711LocalMemoryI12UEnumerationED2Ev.exit unwind label %14

14:                                               ; preds = %12
  %15 = landingpad { ptr, i32 }
          catch ptr null
  %16 = extractvalue { ptr, i32 } %15, 0
  tail call void @__clang_call_terminate(ptr %16) #22
  unreachable

17:                                               ; preds = %_ZN6icu_7711LocalMemoryI12UEnumerationE12adoptInsteadEPS1_.exit
  tail call void @llvm.memcpy.p0.p0.i64(ptr noundef nonnull align 8 dereferenceable(56) %9, ptr noundef nonnull align 8 dereferenceable(56) @_ZL13gKeywordsEnum, i64 56, i1 false)
  %18 = add nsw i32 %1, 1
  %19 = sext i32 %18 to i64
  %20 = invoke noalias ptr @uprv_malloc_77(i64 noundef %19) #21
          to label %21 unwind label %12

21:                                               ; preds = %17
  store ptr %20, ptr %7, align 8, !tbaa !87
  %22 = icmp eq ptr %20, null
  br i1 %22, label %23, label %24

23:                                               ; preds = %21
  store i32 7, ptr %2, align 4, !tbaa !13
  br label %29

24:                                               ; preds = %21
  %25 = sext i32 %1 to i64
  tail call void @llvm.memcpy.p0.p0.i64(ptr nonnull align 1 %20, ptr align 1 %0, i64 %25, i1 false)
  %26 = getelementptr inbounds i8, ptr %20, i64 %25
  store i8 0, ptr %26, align 1, !tbaa !20
  %27 = getelementptr inbounds nuw i8, ptr %7, i64 8
  store ptr %20, ptr %27, align 8, !tbaa !89
  %28 = getelementptr inbounds nuw i8, ptr %9, i64 8
  store ptr %7, ptr %28, align 8, !tbaa !90
  br label %29

29:                                               ; preds = %24, %23, %11
  %.sroa.022.1 = phi ptr [ %7, %23 ], [ null, %24 ], [ %7, %11 ]
  %.sroa.0.1 = phi ptr [ %9, %23 ], [ null, %24 ], [ %9, %11 ]
  %.1 = phi ptr [ null, %23 ], [ %9, %24 ], [ null, %11 ]
  invoke void @uprv_free_77(ptr noundef %.sroa.0.1)
          to label %_ZN6icu_7711LocalMemoryI12UEnumerationED2Ev.exit14 unwind label %30

30:                                               ; preds = %29
  %31 = landingpad { ptr, i32 }
          catch ptr null
  %32 = extractvalue { ptr, i32 } %31, 0
  tail call void @__clang_call_terminate(ptr %32) #22
  unreachable

_ZN6icu_7711LocalMemoryI12UEnumerationED2Ev.exit14: ; preds = %29
  invoke void @uprv_free_77(ptr noundef %.sroa.022.1)
          to label %_ZN6icu_7711LocalMemoryI16UKeywordsContextED2Ev.exit unwind label %33

33:                                               ; preds = %_ZN6icu_7711LocalMemoryI12UEnumerationED2Ev.exit14
  %34 = landingpad { ptr, i32 }
          catch ptr null
  %35 = extractvalue { ptr, i32 } %34, 0
  tail call void @__clang_call_terminate(ptr %35) #22
  unreachable

_ZN6icu_7711LocalMemoryI12UEnumerationED2Ev.exit: ; preds = %12
  invoke void @uprv_free_77(ptr noundef %.sroa.022.0)
          to label %_ZN6icu_7711LocalMemoryI16UKeywordsContextED2Ev.exit15 unwind label %36

36:                                               ; preds = %_ZN6icu_7711LocalMemoryI12UEnumerationED2Ev.exit
  %37 = landingpad { ptr, i32 }
          catch ptr null
  %38 = extractvalue { ptr, i32 } %37, 0
  tail call void @__clang_call_terminate(ptr %38) #22
  unreachable

_ZN6icu_7711LocalMemoryI16UKeywordsContextED2Ev.exit15: ; preds = %_ZN6icu_7711LocalMemoryI12UEnumerationED2Ev.exit
  resume { ptr, i32 } %13

_ZN6icu_7711LocalMemoryI16UKeywordsContextED2Ev.exit: ; preds = %_ZN6icu_7711LocalMemoryI12UEnumerationED2Ev.exit14, %3
  %.010 = phi ptr [ null, %3 ], [ %.1, %_ZN6icu_7711LocalMemoryI12UEnumerationED2Ev.exit14 ]
  ret ptr %.010
}